; Function Attrs: nounwind sspstrong uwtable
define internal fastcc range(i32 0, 2) i32 @read_uint16(ptr noundef %0, i32 noundef range(i32 0, 2) %1, ptr noundef nonnull %2, ptr noundef %3) unnamed_addr #0 {
fread.inline.exit.i:
  %4 = tail call i64 @fread(ptr noundef nonnull %2, i64 noundef 1, i64 noundef 2, ptr noundef %0)
  %switch = icmp ult i64 %4, 2
  br i1 %switch, label %read_bytes.exit.thread, label %read_bytes.exit

read_bytes.exit.thread:                           ; preds = %fread.inline.exit.i
  %5 = load ptr, ptr @stderr, align 8, !tbaa !33
  tail call void (ptr, i32, ptr, ...) @flac__utils_printf(ptr noundef %5, i32 noundef 1, ptr noundef nonnull @.str.56, ptr noundef %3) #20
  br label %10

read_bytes.exit:                                  ; preds = %fread.inline.exit.i
  %.not10 = icmp eq i32 %1, 0
  br i1 %.not10, label %10, label %6

6:                                                ; preds = %read_bytes.exit
  %7 = getelementptr inbounds nuw i8, ptr %2, i64 1
  %8 = load i8, ptr %7, align 1, !tbaa !30
  %9 = load i8, ptr %2, align 1, !tbaa !30
  store i8 %9, ptr %7, align 1, !tbaa !30
  store i8 %8, ptr %2, align 1, !tbaa !30
  br label %10

10:                                               ; preds = %read_bytes.exit.thread, %read_bytes.exit, %6
  %.0 = phi i32 [ 1, %6 ], [ 1, %read_bytes.exit ], [ 0, %read_bytes.exit.thread ]
  ret i32 %.0
}